target datalayout = "e-m:e-p270:32:32-p271:32:32-p272:64:64-i64:64-i128:128-f80:128-n8:16:32:64-S128"
target triple = "x86_64-pc-linux-gnu"

%"class.std::vector" = type { %"struct.std::_Vector_base" }
%"struct.std::_Vector_base" = type { %"struct.std::_Vector_base<int, std::allocator<int>>::_Vector_impl" }
%"struct.std::_Vector_base<int, std::allocator<int>>::_Vector_impl" = type { %"struct.std::_Vector_base<int, std::allocator<int>>::_Vector_impl_data" }
%"struct.std::_Vector_base<int, std::allocator<int>>::_Vector_impl_data" = type { ptr, ptr, ptr }
%"struct.Yosys::DriverMap::DriveBitId" = type { i32 }
%"struct.Yosys::DriverMap::DriveBitGraph" = type { %"class.Yosys::hashlib::dict", %"class.Yosys::hashlib::dict", %"class.Yosys::hashlib::dict.45" }
%"class.Yosys::hashlib::dict" = type <{ %"class.std::vector", %"class.std::vector.40", [8 x i8] }>
%"class.std::vector.40" = type { %"struct.std::_Vector_base.41" }
%"struct.std::_Vector_base.41" = type { %"struct.std::_Vector_base<Yosys::hashlib::dict<Yosys::DriverMap::DriveBitId, Yosys::DriverMap::DriveBitId>::entry_t, std::allocator<Yosys::hashlib::dict<Yosys::DriverMap::DriveBitId, Yosys::DriverMap::DriveBitId>::entry_t>>::_Vector_impl" }
%"struct.std::_Vector_base<Yosys::hashlib::dict<Yosys::DriverMap::DriveBitId, Yosys::DriverMap::DriveBitId>::entry_t, std::allocator<Yosys::hashlib::dict<Yosys::DriverMap::DriveBitId, Yosys::DriverMap::DriveBitId>::entry_t>>::_Vector_impl" = type { %"struct.std::_Vector_base<Yosys::hashlib::dict<Yosys::DriverMap::DriveBitId, Yosys::DriverMap::DriveBitId>::entry_t, std::allocator<Yosys::hashlib::dict<Yosys::DriverMap::DriveBitId, Yosys::DriverMap::DriveBitId>::entry_t>>::_Vector_impl_data" }
%"struct.std::_Vector_base<Yosys::hashlib::dict<Yosys::DriverMap::DriveBitId, Yosys::DriverMap::DriveBitId>::entry_t, std::allocator<Yosys::hashlib::dict<Yosys::DriverMap::DriveBitId, Yosys::DriverMap::DriveBitId>::entry_t>>::_Vector_impl_data" = type { ptr, ptr, ptr }
%"class.Yosys::hashlib::dict.45" = type <{ %"class.std::vector", %"class.std::vector.46", [8 x i8] }>
%"class.std::vector.46" = type { %"struct.std::_Vector_base.47" }
%"struct.std::_Vector_base.47" = type { %"struct.std::_Vector_base<Yosys::hashlib::dict<Yosys::DriverMap::DriveBitId, Yosys::hashlib::pool<Yosys::DriverMap::DriveBitId>>::entry_t, std::allocator<Yosys::hashlib::dict<Yosys::DriverMap::DriveBitId, Yosys::hashlib::pool<Yosys::DriverMap::DriveBitId>>::entry_t>>::_Vector_impl" }
%"struct.std::_Vector_base<Yosys::hashlib::dict<Yosys::DriverMap::DriveBitId, Yosys::hashlib::pool<Yosys::DriverMap::DriveBitId>>::entry_t, std::allocator<Yosys::hashlib::dict<Yosys::DriverMap::DriveBitId, Yosys::hashlib::pool<Yosys::DriverMap::DriveBitId>>::entry_t>>::_Vector_impl" = type { %"struct.std::_Vector_base<Yosys::hashlib::dict<Yosys::DriverMap::DriveBitId, Yosys::hashlib::pool<Yosys::DriverMap::DriveBitId>>::entry_t, std::allocator<Yosys::hashlib::dict<Yosys::DriverMap::DriveBitId, Yosys::hashlib::pool<Yosys::DriverMap::DriveBitId>>::entry_t>>::_Vector_impl_data" }
%"struct.std::_Vector_base<Yosys::hashlib::dict<Yosys::DriverMap::DriveBitId, Yosys::hashlib::pool<Yosys::DriverMap::DriveBitId>>::entry_t, std::allocator<Yosys::hashlib::dict<Yosys::DriverMap::DriveBitId, Yosys::hashlib::pool<Yosys::DriverMap::DriveBitId>>::entry_t>>::_Vector_impl_data" = type { ptr, ptr, ptr }
%"struct.std::pair.64" = type { %"struct.Yosys::DriverMap::DriveBitId", [4 x i8], %"class.Yosys::hashlib::pool.54" }
%"class.Yosys::hashlib::pool.54" = type <{ %"class.std::vector", %"class.std::vector.55", [8 x i8] }>
%"class.std::vector.55" = type { %"struct.std::_Vector_base.56" }
%"struct.std::_Vector_base.56" = type { %"struct.std::_Vector_base<Yosys::hashlib::pool<Yosys::DriverMap::DriveBitId>::entry_t, std::allocator<Yosys::hashlib::pool<Yosys::DriverMap::DriveBitId>::entry_t>>::_Vector_impl" }
%"struct.std::_Vector_base<Yosys::hashlib::pool<Yosys::DriverMap::DriveBitId>::entry_t, std::allocator<Yosys::hashlib::pool<Yosys::DriverMap::DriveBitId>::entry_t>>::_Vector_impl" = type { %"struct.std::_Vector_base<Yosys::hashlib::pool<Yosys::DriverMap::DriveBitId>::entry_t, std::allocator<Yosys::hashlib::pool<Yosys::DriverMap::DriveBitId>::entry_t>>::_Vector_impl_data" }
%"struct.std::_Vector_base<Yosys::hashlib::pool<Yosys::DriverMap::DriveBitId>::entry_t, std::allocator<Yosys::hashlib::pool<Yosys::DriverMap::DriveBitId>::entry_t>>::_Vector_impl_data" = type { ptr, ptr, ptr }
%"struct.Yosys::hashlib::dict<Yosys::DriverMap::DriveBitId, Yosys::hashlib::pool<Yosys::DriverMap::DriveBitId>>::entry_t" = type { %"struct.std::pair.64", i32, [4 x i8] }
%"class.Yosys::hashlib::dict<Yosys::DriverMap::DriveBitId, Yosys::hashlib::pool<Yosys::DriverMap::DriveBitId>>::iterator" = type <{ ptr, i32, [4 x i8] }>

; Function Attrs: mustprogress nounwind uwtable
define linkonce_odr noundef i64 @_ZNKSt6vectorIN5Yosys7hashlib4poolINS0_9DriverMap10DriveBitIdENS1_8hash_opsIS4_EEE7entry_tESaIS8_EE4sizeEv(ptr noundef nonnull align 8 dereferenceable(24) %0) #7 comdat align 2 {
  %2 = alloca ptr, align 8
  store ptr %0, ptr %2, align 8, !tbaa !838
  %3 = load ptr, ptr %2, align 8
  %4 = getelementptr inbounds nuw %"struct.std::_Vector_base.56", ptr %3, i32 0, i32 0
  %5 = getelementptr inbounds nuw %"struct.std::_Vector_base<Yosys::hashlib::pool<Yosys::DriverMap::DriveBitId>::entry_t, std::allocator<Yosys::hashlib::pool<Yosys::DriverMap::DriveBitId>::entry_t>>::_Vector_impl_data", ptr %4, i32 0, i32 1
  %6 = load ptr, ptr %5, align 8, !tbaa !841
  %7 = getelementptr inbounds nuw %"struct.std::_Vector_base.56", ptr %3, i32 0, i32 0
  %8 = getelementptr inbounds nuw %"struct.std::_Vector_base<Yosys::hashlib::pool<Yosys::DriverMap::DriveBitId>::entry_t, std::allocator<Yosys::hashlib::pool<Yosys::DriverMap::DriveBitId>::entry_t>>::_Vector_impl_data", ptr %7, i32 0, i32 0
  %9 = load ptr, ptr %8, align 8, !tbaa !840
  %10 = ptrtoint ptr %6 to i64
  %11 = ptrtoint ptr %9 to i64
  %12 = sub i64 %10, %11
  %13 = sdiv exact i64 %12, 8
  ret i64 %13
}

; Function Attrs: mustprogress nounwind uwtable
define linkonce_odr noundef i64 @_ZNK5Yosys7hashlib4poolINS_9DriverMap10DriveBitIdENS0_8hash_opsIS3_EEE4sizeEv(ptr noundef nonnull align 8 dereferenceable(49) %0) #7 comdat align 2 {
  %2 = alloca ptr, align 8
  store ptr %0, ptr %2, align 8, !tbaa !181
  %3 = load ptr, ptr %2, align 8
  %4 = getelementptr inbounds nuw %"class.Yosys::hashlib::pool.54", ptr %3, i32 0, i32 1
  %5 = call noundef i64 @_ZNKSt6vectorIN5Yosys7hashlib4poolINS0_9DriverMap10DriveBitIdENS1_8hash_opsIS4_EEE7entry_tESaIS8_EE4sizeEv(ptr noundef nonnull align 8 dereferenceable(24) %4) #3
  ret i64 %5
}

; Function Attrs: mustprogress nounwind uwtable
define linkonce_odr noundef nonnull align 8 dereferenceable(68) ptr @_ZNSt6vectorIN5Yosys7hashlib4dictINS0_9DriverMap10DriveBitIdENS1_4poolIS4_NS1_8hash_opsIS4_EEEES7_E7entry_tESaISA_EEixEm(ptr noundef nonnull align 8 dereferenceable(24) %0, i64 noundef %1) #7 comdat align 2 {
  %3 = alloca ptr, align 8
  %4 = alloca i64, align 8
  store ptr %0, ptr %3, align 8, !tbaa !827
  store i64 %1, ptr %4, align 8, !tbaa !121
  %5 = load ptr, ptr %3, align 8
  %6 = getelementptr inbounds nuw %"struct.std::_Vector_base.47", ptr %5, i32 0, i32 0
  %7 = getelementptr inbounds nuw %"struct.std::_Vector_base<Yosys::hashlib::dict<Yosys::DriverMap::DriveBitId, Yosys::hashlib::pool<Yosys::DriverMap::DriveBitId>>::entry_t, std::allocator<Yosys::hashlib::dict<Yosys::DriverMap::DriveBitId, Yosys::hashlib::pool<Yosys::DriverMap::DriveBitId>>::entry_t>>::_Vector_impl_data", ptr %6, i32 0, i32 0
  %8 = load ptr, ptr %7, align 8, !tbaa !829
  %9 = load i64, ptr %4, align 8, !tbaa !121
  %10 = getelementptr inbounds nuw %"struct.Yosys::hashlib::dict<Yosys::DriverMap::DriveBitId, Yosys::hashlib::pool<Yosys::DriverMap::DriveBitId>>::entry_t", ptr %8, i64 %9
  ret ptr %10
}

; Function Attrs: mustprogress nounwind uwtable
define linkonce_odr void @_ZN5Yosys7hashlib4dictINS_9DriverMap10DriveBitIdENS0_4poolIS3_NS0_8hash_opsIS3_EEEES6_E8iteratorC2EPS8_i(ptr noundef nonnull align 8 dereferenceable(12) %0, ptr noundef %1, i32 noundef %2) unnamed_addr #7 comdat align 2 {
  %4 = alloca ptr, align 8
  %5 = alloca ptr, align 8
  %6 = alloca i32, align 4
  store ptr %0, ptr %4, align 8, !tbaa !186
  store ptr %1, ptr %5, align 8, !tbaa !179
  store i32 %2, ptr %6, align 4, !tbaa !23
  %7 = load ptr, ptr %4, align 8
  %8 = getelementptr inbounds nuw %"class.Yosys::hashlib::dict<Yosys::DriverMap::DriveBitId, Yosys::hashlib::pool<Yosys::DriverMap::DriveBitId>>::iterator", ptr %7, i32 0, i32 0
  %9 = load ptr, ptr %5, align 8, !tbaa !179
  store ptr %9, ptr %8, align 8, !tbaa !190
  %10 = getelementptr inbounds nuw %"class.Yosys::hashlib::dict<Yosys::DriverMap::DriveBitId, Yosys::hashlib::pool<Yosys::DriverMap::DriveBitId>>::iterator", ptr %7, i32 0, i32 1
  %11 = load i32, ptr %6, align 4, !tbaa !23
  store i32 %11, ptr %10, align 8, !tbaa !188
  ret void
}

; Function Attrs: mustprogress uwtable
define linkonce_odr noundef i32 @_ZN5Yosys7GetSizeINS_7hashlib4poolINS_9DriverMap10DriveBitIdENS1_8hash_opsIS4_EEEEEEiRKT_(ptr noundef nonnull align 8 dereferenceable(49) %0) #4 comdat {
  %2 = alloca ptr, align 8
  store ptr %0, ptr %2, align 8, !tbaa !181
  %3 = load ptr, ptr %2, align 8, !tbaa !181
  %4 = call noundef i64 @_ZNK5Yosys7hashlib4poolINS_9DriverMap10DriveBitIdENS0_8hash_opsIS3_EEE4sizeEv(ptr noundef nonnull align 8 dereferenceable(49) %3)
  %5 = trunc i64 %4 to i32
  ret i32 %5
}

; Function Attrs: mustprogress nounwind uwtable
define linkonce_odr noundef ptr @_ZN5Yosys7hashlib4dictINS_9DriverMap10DriveBitIdENS0_4poolIS3_NS0_8hash_opsIS3_EEEES6_E8iteratorptEv(ptr noundef nonnull align 8 dereferenceable(12) %0) #7 comdat align 2 {
  %2 = alloca ptr, align 8
  store ptr %0, ptr %2, align 8, !tbaa !186
  %3 = load ptr, ptr %2, align 8
  %4 = getelementptr inbounds nuw %"class.Yosys::hashlib::dict<Yosys::DriverMap::DriveBitId, Yosys::hashlib::pool<Yosys::DriverMap::DriveBitId>>::iterator", ptr %3, i32 0, i32 0
  %5 = load ptr, ptr %4, align 8, !tbaa !190
  %6 = getelementptr inbounds nuw %"class.Yosys::hashlib::dict.45", ptr %5, i32 0, i32 1
  %7 = getelementptr inbounds nuw %"class.Yosys::hashlib::dict<Yosys::DriverMap::DriveBitId, Yosys::hashlib::pool<Yosys::DriverMap::DriveBitId>>::iterator", ptr %3, i32 0, i32 1
  %8 = load i32, ptr %7, align 8, !tbaa !188
  %9 = sext i32 %8 to i64
  %10 = call noundef nonnull align 8 dereferenceable(68) ptr @_ZNSt6vectorIN5Yosys7hashlib4dictINS0_9DriverMap10DriveBitIdENS1_4poolIS4_NS1_8hash_opsIS4_EEEES7_E7entry_tESaISA_EEixEm(ptr noundef nonnull align 8 dereferenceable(24) %6, i64 noundef %9) #3
  %11 = getelementptr inbounds nuw %"struct.Yosys::hashlib::dict<Yosys::DriverMap::DriveBitId, Yosys::hashlib::pool<Yosys::DriverMap::DriveBitId>>::entry_t", ptr %10, i32 0, i32 0
  ret ptr %11
}

; Function Attrs: mustprogress nounwind uwtable
define linkonce_odr noundef zeroext i1 @_ZNK5Yosys7hashlib4dictINS_9DriverMap10DriveBitIdENS0_4poolIS3_NS0_8hash_opsIS3_EEEES6_E8iteratoreqERKS9_(ptr noundef nonnull align 8 dereferenceable(12) %0, ptr noundef nonnull align 8 dereferenceable(12) %1) #7 comdat align 2 {
  %3 = alloca ptr, align 8
  %4 = alloca ptr, align 8
  store ptr %0, ptr %3, align 8, !tbaa !186
  store ptr %1, ptr %4, align 8, !tbaa !186
  %5 = load ptr, ptr %3, align 8
  %6 = getelementptr inbounds nuw %"class.Yosys::hashlib::dict<Yosys::DriverMap::DriveBitId, Yosys::hashlib::pool<Yosys::DriverMap::DriveBitId>>::iterator", ptr %5, i32 0, i32 1
  %7 = load i32, ptr %6, align 8, !tbaa !188
  %8 = load ptr, ptr %4, align 8, !tbaa !186
  %9 = getelementptr inbounds nuw %"class.Yosys::hashlib::dict<Yosys::DriverMap::DriveBitId, Yosys::hashlib::pool<Yosys::DriverMap::DriveBitId>>::iterator", ptr %8, i32 0, i32 1
  %10 = load i32, ptr %9, align 8, !tbaa !188
  %11 = icmp eq i32 %7, %10
  ret i1 %11
}

; Function Attrs: mustprogress uwtable
define linkonce_odr { ptr, i32 } @_ZN5Yosys7hashlib4dictINS_9DriverMap10DriveBitIdENS0_4poolIS3_NS0_8hash_opsIS3_EEEES6_E3endEv(ptr noundef nonnull align 8 dereferenceable(49) %0) #4 comdat align 2 {
  %2 = alloca %"class.Yosys::hashlib::dict<Yosys::DriverMap::DriveBitId, Yosys::hashlib::pool<Yosys::DriverMap::DriveBitId>>::iterator", align 8
  %3 = alloca ptr, align 8
  store ptr %0, ptr %3, align 8, !tbaa !179
  call void @_ZN5Yosys7hashlib4dictINS_9DriverMap10DriveBitIdENS0_4poolIS3_NS0_8hash_opsIS3_EEEES6_E8iteratorC2EPS8_i(ptr noundef nonnull align 8 dereferenceable(12) %2, ptr noundef null, i32 noundef -1)
  %4 = load { ptr, i32 }, ptr %2, align 8
  ret { ptr, i32 } %4
}

; Function Attrs: mustprogress uwtable
define noundef i32 @_ZN5Yosys9DriverMap13DriveBitGraph5countENS0_10DriveBitIdE(ptr noundef nonnull align 8 dereferenceable(168) %0, i32 %1) #4 align 2 {
  %3 = alloca i32, align 4
  %4 = alloca %"struct.Yosys::DriverMap::DriveBitId", align 4
  %5 = alloca ptr, align 8
  %6 = alloca %"class.Yosys::hashlib::dict<Yosys::DriverMap::DriveBitId, Yosys::hashlib::pool<Yosys::DriverMap::DriveBitId>>::iterator", align 8
  %7 = alloca { ptr, i32 }, align 8
  %8 = alloca %"class.Yosys::hashlib::dict<Yosys::DriverMap::DriveBitId, Yosys::hashlib::pool<Yosys::DriverMap::DriveBitId>>::iterator", align 8
  %9 = alloca { ptr, i32 }, align 8
  %10 = alloca i32, align 4
  %11 = getelementptr inbounds nuw %"struct.Yosys::DriverMap::DriveBitId", ptr %4, i32 0, i32 0
  store i32 %1, ptr %11, align 4
  store ptr %0, ptr %5, align 8, !tbaa !164
  %12 = load ptr, ptr %5, align 8
  %13 = getelementptr inbounds nuw %"struct.Yosys::DriverMap::DriveBitGraph", ptr %12, i32 0, i32 0
  %14 = call noundef i32 @_ZNK5Yosys7hashlib4dictINS_9DriverMap10DriveBitIdES3_NS0_8hash_opsIS3_EEE5countERKS3_(ptr noundef nonnull align 8 dereferenceable(49) %13, ptr noundef nonnull align 4 dereferenceable(4) %4)
  %15 = icmp ne i32 %14, 0
  br i1 %15, label %17, label %16

16:                                               ; preds = %2
  store i32 0, ptr %3, align 4
  br label %35

17:                                               ; preds = %2
  %18 = getelementptr inbounds nuw %"struct.Yosys::DriverMap::DriveBitGraph", ptr %12, i32 0, i32 1
  %19 = call noundef i32 @_ZNK5Yosys7hashlib4dictINS_9DriverMap10DriveBitIdES3_NS0_8hash_opsIS3_EEE5countERKS3_(ptr noundef nonnull align 8 dereferenceable(49) %18, ptr noundef nonnull align 4 dereferenceable(4) %4)
  %20 = icmp ne i32 %19, 0
  br i1 %20, label %22, label %21

21:                                               ; preds = %17
  store i32 1, ptr %3, align 4
  br label %35

22:                                               ; preds = %17
  call void @llvm.lifetime.start.p0(i64 16, ptr %6) #3
  %23 = getelementptr inbounds nuw %"struct.Yosys::DriverMap::DriveBitGraph", ptr %12, i32 0, i32 2
  %24 = call { ptr, i32 } @_ZN5Yosys7hashlib4dictINS_9DriverMap10DriveBitIdENS0_4poolIS3_NS0_8hash_opsIS3_EEEES6_E4findERKS3_(ptr noundef nonnull align 8 dereferenceable(49) %23, ptr noundef nonnull align 4 dereferenceable(4) %4)
  store { ptr, i32 } %24, ptr %7, align 8
  call void @llvm.memcpy.p0.p0.i64(ptr align 8 %6, ptr align 8 %7, i64 12, i1 false)
  call void @llvm.lifetime.start.p0(i64 16, ptr %8) #3
  %25 = getelementptr inbounds nuw %"struct.Yosys::DriverMap::DriveBitGraph", ptr %12, i32 0, i32 2
  %26 = call { ptr, i32 } @_ZN5Yosys7hashlib4dictINS_9DriverMap10DriveBitIdENS0_4poolIS3_NS0_8hash_opsIS3_EEEES6_E3endEv(ptr noundef nonnull align 8 dereferenceable(49) %25)
  store { ptr, i32 } %26, ptr %9, align 8
  call void @llvm.memcpy.p0.p0.i64(ptr align 8 %8, ptr align 8 %9, i64 12, i1 false)
  %27 = call noundef zeroext i1 @_ZNK5Yosys7hashlib4dictINS_9DriverMap10DriveBitIdENS0_4poolIS3_NS0_8hash_opsIS3_EEEES6_E8iteratoreqERKS9_(ptr noundef nonnull align 8 dereferenceable(12) %6, ptr noundef nonnull align 8 dereferenceable(12) %8)
  call void @llvm.lifetime.end.p0(i64 16, ptr %8) #3
  br i1 %27, label %28, label %29

28:                                               ; preds = %22
  store i32 2, ptr %3, align 4
  store i32 1, ptr %10, align 4
  br label %34

29:                                               ; preds = %22
  %30 = call noundef ptr @_ZN5Yosys7hashlib4dictINS_9DriverMap10DriveBitIdENS0_4poolIS3_NS0_8hash_opsIS3_EEEES6_E8iteratorptEv(ptr noundef nonnull align 8 dereferenceable(12) %6)
  %31 = getelementptr inbounds nuw %"struct.std::pair.64", ptr %30, i32 0, i32 2
  %32 = call noundef i32 @_ZN5Yosys7GetSizeINS_7hashlib4poolINS_9DriverMap10DriveBitIdENS1_8hash_opsIS4_EEEEEEiRKT_(ptr noundef nonnull align 8 dereferenceable(49) %31)
  %33 = add nsw i32 %32, 2
  store i32 %33, ptr %3, align 4
  store i32 1, ptr %10, align 4
  br label %34

34:                                               ; preds = %29, %28
  call void @llvm.lifetime.end.p0(i64 16, ptr %6) #3
  br label %35

35:                                               ; preds = %34, %21, %16
  %36 = load i32, ptr %3, align 4
  ret i32 %36
}