; Function Attrs: mustprogress uwtable
define noundef range(i32 -2147483646, -2147483648) i32 @_ZN5Yosys9DriverMap13DriveBitGraph5countENS0_10DriveBitIdE(ptr noundef nonnull align 8 dereferenceable(168) %0, i32 %1) local_unnamed_addr #5 align 2 {
  %3 = alloca %"struct.Yosys::DriverMap::DriveBitId", align 4
  store i32 %1, ptr %3, align 4
  %4 = call noundef i32 @_ZNK5Yosys7hashlib4dictINS_9DriverMap10DriveBitIdES3_NS0_8hash_opsIS3_EEE5countERKS3_(ptr noundef nonnull align 8 dereferenceable(49) %0, ptr noundef nonnull align 4 dereferenceable(4) %3)
  %.not = icmp eq i32 %4, 0
  br i1 %.not, label %27, label %5

5:                                                ; preds = %2
  %6 = getelementptr inbounds nuw i8, ptr %0, i64 56
  %7 = call noundef i32 @_ZNK5Yosys7hashlib4dictINS_9DriverMap10DriveBitIdES3_NS0_8hash_opsIS3_EEE5countERKS3_(ptr noundef nonnull align 8 dereferenceable(49) %6, ptr noundef nonnull align 4 dereferenceable(4) %3)
  %.not5 = icmp eq i32 %7, 0
  br i1 %.not5, label %27, label %8

8:                                                ; preds = %5
  %9 = getelementptr inbounds nuw i8, ptr %0, i64 112
  %10 = call { ptr, i32 } @_ZN5Yosys7hashlib4dictINS_9DriverMap10DriveBitIdENS0_4poolIS3_NS0_8hash_opsIS3_EEEES6_E4findERKS3_(ptr noundef nonnull align 8 dereferenceable(49) %9, ptr noundef nonnull align 4 dereferenceable(4) %3)
  %.fca.1.extract2 = extractvalue { ptr, i32 } %10, 1
  %11 = icmp eq i32 %.fca.1.extract2, -1
  br i1 %11, label %27, label %12

12:                                               ; preds = %8
  %.fca.0.extract1 = extractvalue { ptr, i32 } %10, 0
  %13 = getelementptr inbounds nuw i8, ptr %.fca.0.extract1, i64 24
  %14 = sext i32 %.fca.1.extract2 to i64
  %15 = load ptr, ptr %13, align 8, !tbaa !168
  %16 = getelementptr inbounds nuw %"struct.Yosys::hashlib::dict<Yosys::DriverMap::DriveBitId, Yosys::hashlib::pool<Yosys::DriverMap::DriveBitId>>::entry_t", ptr %15, i64 %14, i32 0, i32 2
  %17 = getelementptr inbounds nuw i8, ptr %16, i64 24
  %18 = getelementptr inbounds nuw i8, ptr %16, i64 32
  %19 = load ptr, ptr %18, align 8, !tbaa !182
  %20 = load ptr, ptr %17, align 8, !tbaa !180
  %21 = ptrtoint ptr %19 to i64
  %22 = ptrtoint ptr %20 to i64
  %23 = sub i64 %21, %22
  %24 = lshr exact i64 %23, 3
  %25 = trunc i64 %24 to i32
  %26 = add nsw i32 %25, 2
  br label %27

27:                                               ; preds = %12, %8, %5, %2
  %.0 = phi i32 [ 0, %2 ], [ 1, %5 ], [ %26, %12 ], [ 2, %8 ]
  ret i32 %.0
}